Certificate:
    Data:
        Version: 3 (0x2)
        Serial Number: 4100 (0x1004)
    Signature Algorithm: sha1WithRSAEncryption
        Issuer: O=NodeOPCUA, CN=NodeOPCUA
        Validity
            Not Before: Dec 19 15:12:10 2015 GMT
            Not After : Dec 18 15:12:10 2016 GMT
        Subject: O=NodeOPCUA, CN=NodeOPCUA
        Subject Public Key Info:
            Public Key Algorithm: rsaEncryption
                Public-Key: (2048 bit)
                Modulus:
                    00:b1:48:a2:a7:98:ae:df:db:c2:bd:e2:a1:52:41:
                    cd:ea:e1:da:00:75:a6:85:52:9e:ee:a1:f9:dc:22:
                    e6:d8:d6:82:81:30:9c:0e:55:04:f4:d1:c1:f5:19:
                    e3:12:98:da:7a:4c:cc:90:b9:eb:16:81:8e:ad:d2:
                    86:e2:75:4e:4e:74:53:39:8d:55:6f:48:8c:a7:21:
                    aa:2c:d5:e7:f8:e0:98:86:53:63:4d:4c:89:b4:9e:
                    9c:03:80:1e:c5:88:fb:a1:b1:92:b7:56:a5:a5:70:
                    bb:ef:44:56:27:71:98:df:da:e6:e7:cd:42:52:15:
                    5f:c6:7b:26:a4:9e:16:c1:43:d0:ff:9d:bf:4d:fe:
                    36:35:66:26:c0:f2:1d:91:0b:4c:21:92:47:1d:65:
                    3d:3e:c3:00:a9:24:88:47:1b:9c:b7:30:ea:0b:dc:
                    1a:4d:d2:bf:9a:10:d6:af:96:9f:bc:5c:ce:08:cc:
                    80:22:ea:cc:2d:2a:d4:0d:b0:50:bf:5c:f9:26:34:
                    34:f7:c7:d8:d5:33:b5:25:90:7b:6f:56:2c:2e:f2:
                    63:55:9e:5c:6a:d4:27:07:12:6f:39:ef:c9:d4:ae:
                    8b:29:1c:e3:a9:30:cf:9a:cb:10:0d:f6:46:60:ef:
                    c1:b8:a9:07:65:88:87:a0:05:a6:7c:d3:e8:6e:bd:
                    3a:35
                Exponent: 65537 (0x10001)
        X509v3 extensions:
            X509v3 Basic Constraints: critical
                CA:FALSE
            X509v3 Subject Key Identifier: 
                20:0D:7D:7B:18:74:BF:6F:CA:E3:0E:22:AE:74:57:B0:D2:AF:FF:2E
            X509v3 Authority Key Identifier: 
                keyid:20:0D:7D:7B:18:74:BF:6F:CA:E3:0E:22:AE:74:57:B0:D2:AF:FF:2E
                DirName:/O=NodeOPCUA/CN=NodeOPCUA
                serial:10:04

            X509v3 Subject Alternative Name: 
                URI:SomeUri, DNS:, DNS:
            Netscape Comment: 
                OpenSSL Generated Certificate
            X509v3 Key Usage: critical
                Digital Signature, Non Repudiation, Key Encipherment, Data Encipherment, Key Agreement, Certificate Sign
            X509v3 Extended Key Usage: critical
                TLS Web Server Authentication, TLS Web Client Authentication
    Signature Algorithm: sha1WithRSAEncryption
         27:21:67:34:c6:93:22:0c:b2:0e:a4:9b:e9:a1:a8:9e:a9:75:
         51:74:27:19:ff:8c:62:37:31:f7:38:31:31:0b:51:c7:65:bf:
         e7:8f:d0:43:3e:5d:fa:0a:d6:53:bc:9f:0f:9b:bd:84:85:71:
         b1:58:37:3e:b6:bc:82:5d:cb:3c:9b:28:ba:38:f2:1d:ea:e2:
         e6:34:0a:a8:9f:2c:97:ce:82:df:cc:17:90:7d:f8:81:12:54:
         ae:8a:5f:12:dc:87:6d:e0:ed:9f:27:9b:0d:24:0d:b3:8f:c4:
         2b:60:c6:88:a6:46:b5:b9:14:b4:73:fb:be:9b:a8:20:04:97:
         d9:ba:33:c8:44:59:f6:4f:7f:0b:05:9d:c4:4a:e7:54:bb:94:
         41:35:f9:46:37:86:37:c7:15:72:a1:51:74:a2:61:5d:3e:cb:
         f8:4f:7c:8f:77:4d:dc:d6:5e:b8:ae:48:96:f7:61:1e:45:09:
         95:e8:74:0c:9b:1b:f3:76:92:d2:4e:38:d6:22:d3:a7:0e:d4:
         fa:c4:51:73:05:7c:b9:57:16:09:08:63:91:27:73:a6:9e:ff:
         9d:ae:16:1d:4c:70:33:fb:be:c4:b6:58:15:8c:c8:a5:0b:18:
         66:88:5f:36:f8:33:7b:ca:33:4d:50:c0:b7:04:db:25:d0:d7:
         b6:c8:03:66
-----BEGIN CERTIFICATE-----
MIIDzDCCArSgAwIBAgICEAQwDQYJKoZIhvcNAQEFBQAwKDESMBAGA1UEChMJTm9k
ZU9QQ1VBMRIwEAYDVQQDEwlOb2RlT1BDVUEwIhgPMjAxNTEyMTkxNTEyMTBaGA8y
MDE2MTIxODE1MTIxMFowKDESMBAGA1UEChMJTm9kZU9QQ1VBMRIwEAYDVQQDEwlO
b2RlT1BDVUEwggEiMA0GCSqGSIb3DQEBAQUAA4IBDwAwggEKAoIBAQCxSKKnmK7f
28K94qFSQc3q4doAdaaFUp7uofncIubY1oKBMJwOVQT00cH1GeMSmNp6TMyQuesW
gY6t0obidU5OdFM5jVVvSIynIaos1ef44JiGU2NNTIm0npwDgB7FiPuhsZK3VqWl
cLvvRFYncZjf2ubnzUJSFV/GeyaknhbBQ9D/nb9N/jY1ZibA8h2RC0whkkcdZT0+
wwCpJIhHG5y3MOoL3BpN0r+aENavlp+8XM4IzIAi6swtKtQNsFC/XPkmNDT3x9jV
M7UlkHtvViwu8mNVnlxq1CcHEm8578nUrospHOOpMM+ayxAN9kZg78G4qQdliIeg
BaZ80+huvTo1AgMBAAGjgfswgfgwDAYDVR0TAQH/BAIwADAdBgNVHQ4EFgQUIA19
exh0v2/K4w4irnRXsNKv/y4wUQYDVR0jBEowSIAUIA19exh0v2/K4w4irnRXsNKv
/y6hLKQqMCgxEjAQBgNVBAoTCU5vZGVPUENVQTESMBAGA1UEAxMJTm9kZU9QQ1VB
ggIQBDAWBgNVHREEDzANhgdTb21lVXJpggCCADAsBglghkgBhvhCAQ0EHxYdT3Bl
blNTTCBHZW5lcmF0ZWQgQ2VydGlmaWNhdGUwDgYDVR0PAQH/BAQDAgL8MCAGA1Ud
JQEB/wQWMBQGCCsGAQUFBwMBBggrBgEFBQcDAjANBgkqhkiG9w0BAQUFAAOCAQEA
JyFnNMaTIgyyDqSb6aGonql1UXQnGf+MYjcx9zgxMQtRx2W/54/QQz5d+grWU7yf
D5u9hIVxsVg3Pra8gl3LPJsoujjyHeri5jQKqJ8sl86C38wXkH34gRJUropfEtyH
beDtnyebDSQNs4/EK2DGiKZGtbkUtHP7vpuoIASX2bozyERZ9k9/CwWdxErnVLuU
QTX5RjeGN8cVcqFRdKJhXT7L+E98j3dN3NZeuK5IlvdhHkUJleh0DJsb83aS0k44
1iLTpw7U+sRRcwV8uVcWCQhjkSdzpp7/na4WHUxwM/u+xLZYFYzIpQsYZohfNvgz
e8ozTVDAtwTbJdDXtsgDZg==
-----END CERTIFICATE-----
